; Function Attrs: mustprogress uwtable
define hidden noundef zeroext i1 @_ZN11mpf_manager11has_top_expERK3mpf(ptr noundef nonnull align 8 dereferenceable(840) %this, ptr nocapture noundef nonnull readonly align 8 dereferenceable(32) %x) local_unnamed_addr #5 align 2 {
entry:
  %exponent.i = getelementptr inbounds i8, ptr %x, i64 24
  %0 = load i64, ptr %exponent.i, align 8
  %bf.load = load i32, ptr %x, align 8
  %bf.clear = and i32 %bf.load, 32767
  %m_mpz_manager.i = getelementptr inbounds i8, ptr %this, i64 728
  %1 = load ptr, ptr %m_mpz_manager.i, align 8
  %m_powers2.i = getelementptr inbounds i8, ptr %this, i64 736
  %sub.i = add nsw i32 %bf.clear, -1
  %call.i = tail call noundef nonnull align 8 dereferenceable(16) ptr @_ZN11mpf_manager7powers2clEjb(ptr noundef nonnull align 8 dereferenceable(104) %m_powers2.i, i32 noundef %sub.i, i1 noundef zeroext false)
  %call2.i = tail call noundef i64 @_ZNK11mpz_managerILb0EE9get_int64ERK3mpz(ptr noundef nonnull align 8 dereferenceable(600) %1, ptr noundef nonnull align 8 dereferenceable(16) %call.i)
  %cmp = icmp eq i64 %0, %call2.i
  ret i1 %cmp
}